target datalayout = "e-m:e-p270:32:32-p271:32:32-p272:64:64-i64:64-i128:128-f80:128-n8:16:32:64-S128"
target triple = "x86_64-pc-linux-gnu"

%struct.VP8LHistogram = type { ptr, [256 x i32], [256 x i32], [256 x i32], [40 x i32], i32, i32, i64, i64, i64, i64, [5 x i8] }

@VP8LExtraCost = external global ptr, align 8

; Function Attrs: inlinehint nounwind uwtable
define internal i32 @VP8LHistogramNumCodes(i32 noundef %0) #3 {
  %2 = alloca i32, align 4
  store i32 %0, ptr %2, align 4, !tbaa !14
  %3 = load i32, ptr %2, align 4, !tbaa !14
  %4 = icmp sgt i32 %3, 0
  br i1 %4, label %5, label %8

5:                                                ; preds = %1
  %6 = load i32, ptr %2, align 4, !tbaa !14
  %7 = shl i32 1, %6
  br label %9

8:                                                ; preds = %1
  br label %9

9:                                                ; preds = %8, %5
  %10 = phi i32 [ %7, %5 ], [ 0, %8 ]
  %11 = add nsw i32 280, %10
  ret i32 %11
}

; Function Attrs: nounwind uwtable
define hidden i64 @VP8LHistogramEstimateBits(ptr noundef %0) #0 {
  %2 = alloca ptr, align 8
  store ptr %0, ptr %2, align 8, !tbaa !3
  %3 = load ptr, ptr %2, align 8, !tbaa !3
  %4 = getelementptr inbounds nuw %struct.VP8LHistogram, ptr %3, i32 0, i32 0
  %5 = load ptr, ptr %4, align 8, !tbaa !16
  %6 = load ptr, ptr %2, align 8, !tbaa !3
  %7 = getelementptr inbounds nuw %struct.VP8LHistogram, ptr %6, i32 0, i32 5
  %8 = load i32, ptr %7, align 8, !tbaa !21
  %9 = call i32 @VP8LHistogramNumCodes(i32 noundef %8)
  %10 = load ptr, ptr %2, align 8, !tbaa !3
  %11 = getelementptr inbounds nuw %struct.VP8LHistogram, ptr %10, i32 0, i32 11
  %12 = getelementptr inbounds [5 x i8], ptr %11, i64 0, i64 0
  %13 = call i64 @PopulationCost(ptr noundef %5, i32 noundef %9, ptr noundef null, ptr noundef %12)
  %14 = load ptr, ptr %2, align 8, !tbaa !3
  %15 = getelementptr inbounds nuw %struct.VP8LHistogram, ptr %14, i32 0, i32 1
  %16 = getelementptr inbounds [256 x i32], ptr %15, i64 0, i64 0
  %17 = load ptr, ptr %2, align 8, !tbaa !3
  %18 = getelementptr inbounds nuw %struct.VP8LHistogram, ptr %17, i32 0, i32 11
  %19 = getelementptr inbounds [5 x i8], ptr %18, i64 0, i64 1
  %20 = call i64 @PopulationCost(ptr noundef %16, i32 noundef 256, ptr noundef null, ptr noundef %19)
  %21 = add i64 %13, %20
  %22 = load ptr, ptr %2, align 8, !tbaa !3
  %23 = getelementptr inbounds nuw %struct.VP8LHistogram, ptr %22, i32 0, i32 2
  %24 = getelementptr inbounds [256 x i32], ptr %23, i64 0, i64 0
  %25 = load ptr, ptr %2, align 8, !tbaa !3
  %26 = getelementptr inbounds nuw %struct.VP8LHistogram, ptr %25, i32 0, i32 11
  %27 = getelementptr inbounds [5 x i8], ptr %26, i64 0, i64 2
  %28 = call i64 @PopulationCost(ptr noundef %24, i32 noundef 256, ptr noundef null, ptr noundef %27)
  %29 = add i64 %21, %28
  %30 = load ptr, ptr %2, align 8, !tbaa !3
  %31 = getelementptr inbounds nuw %struct.VP8LHistogram, ptr %30, i32 0, i32 3
  %32 = getelementptr inbounds [256 x i32], ptr %31, i64 0, i64 0
  %33 = load ptr, ptr %2, align 8, !tbaa !3
  %34 = getelementptr inbounds nuw %struct.VP8LHistogram, ptr %33, i32 0, i32 11
  %35 = getelementptr inbounds [5 x i8], ptr %34, i64 0, i64 3
  %36 = call i64 @PopulationCost(ptr noundef %32, i32 noundef 256, ptr noundef null, ptr noundef %35)
  %37 = add i64 %29, %36
  %38 = load ptr, ptr %2, align 8, !tbaa !3
  %39 = getelementptr inbounds nuw %struct.VP8LHistogram, ptr %38, i32 0, i32 4
  %40 = getelementptr inbounds [40 x i32], ptr %39, i64 0, i64 0
  %41 = load ptr, ptr %2, align 8, !tbaa !3
  %42 = getelementptr inbounds nuw %struct.VP8LHistogram, ptr %41, i32 0, i32 11
  %43 = getelementptr inbounds [5 x i8], ptr %42, i64 0, i64 4
  %44 = call i64 @PopulationCost(ptr noundef %40, i32 noundef 40, ptr noundef null, ptr noundef %43)
  %45 = add i64 %37, %44
  %46 = load ptr, ptr @VP8LExtraCost, align 8, !tbaa !3
  %47 = load ptr, ptr %2, align 8, !tbaa !3
  %48 = getelementptr inbounds nuw %struct.VP8LHistogram, ptr %47, i32 0, i32 0
  %49 = load ptr, ptr %48, align 8, !tbaa !16
  %50 = getelementptr inbounds i32, ptr %49, i64 256
  %51 = call i32 %46(ptr noundef %50, i32 noundef 24)
  %52 = load ptr, ptr @VP8LExtraCost, align 8, !tbaa !3
  %53 = load ptr, ptr %2, align 8, !tbaa !3
  %54 = getelementptr inbounds nuw %struct.VP8LHistogram, ptr %53, i32 0, i32 4
  %55 = getelementptr inbounds [40 x i32], ptr %54, i64 0, i64 0
  %56 = call i32 %52(ptr noundef %55, i32 noundef 40)
  %57 = add i32 %51, %56
  %58 = zext i32 %57 to i64
  %59 = shl i64 %58, 23
  %60 = add i64 %45, %59
  ret i64 %60
}