; Function Attrs: nounwind uwtable
define hidden i64 @VP8LHistogramEstimateBits(ptr noundef initializes((3280, 3281)) %0) local_unnamed_addr #0 {
  %2 = load ptr, ptr %0, align 8, !tbaa !18
  %3 = getelementptr inbounds nuw i8, ptr %0, i64 3240
  %4 = load i32, ptr %3, align 8, !tbaa !24
  %5 = icmp sgt i32 %4, 0
  %6 = shl nuw i32 1, %4
  %7 = add nuw nsw i32 %6, 280
  %8 = select i1 %5, i32 %7, i32 280
  %9 = getelementptr inbounds nuw i8, ptr %0, i64 3280
  %10 = tail call fastcc i64 @PopulationCost(ptr noundef %2, i32 noundef %8, ptr noundef null, ptr noundef nonnull %9)
  %11 = getelementptr inbounds nuw i8, ptr %0, i64 8
  %12 = getelementptr inbounds nuw i8, ptr %0, i64 3281
  %13 = tail call fastcc i64 @PopulationCost(ptr noundef nonnull %11, i32 noundef 256, ptr noundef null, ptr noundef nonnull %12)
  %14 = add i64 %13, %10
  %15 = getelementptr inbounds nuw i8, ptr %0, i64 1032
  %16 = getelementptr inbounds nuw i8, ptr %0, i64 3282
  %17 = tail call fastcc i64 @PopulationCost(ptr noundef nonnull %15, i32 noundef 256, ptr noundef null, ptr noundef nonnull %16)
  %18 = add i64 %14, %17
  %19 = getelementptr inbounds nuw i8, ptr %0, i64 2056
  %20 = getelementptr inbounds nuw i8, ptr %0, i64 3283
  %21 = tail call fastcc i64 @PopulationCost(ptr noundef nonnull %19, i32 noundef 256, ptr noundef null, ptr noundef nonnull %20)
  %22 = add i64 %18, %21
  %23 = getelementptr inbounds nuw i8, ptr %0, i64 3080
  %24 = getelementptr inbounds nuw i8, ptr %0, i64 3284
  %25 = tail call fastcc i64 @PopulationCost(ptr noundef nonnull %23, i32 noundef 40, ptr noundef null, ptr noundef nonnull %24)
  %26 = add i64 %22, %25
  %27 = load ptr, ptr @VP8LExtraCost, align 8, !tbaa !29
  %28 = load ptr, ptr %0, align 8, !tbaa !18
  %29 = getelementptr inbounds nuw i8, ptr %28, i64 1024
  %30 = tail call i32 %27(ptr noundef nonnull %29, i32 noundef 24) #10
  %31 = load ptr, ptr @VP8LExtraCost, align 8, !tbaa !29
  %32 = tail call i32 %31(ptr noundef nonnull %23, i32 noundef 40) #10
  %33 = add i32 %32, %30
  %34 = zext i32 %33 to i64
  %35 = shl nuw nsw i64 %34, 23
  %36 = add i64 %26, %35
  ret i64 %36
}